target datalayout = "e-m:e-p270:32:32-p271:32:32-p272:64:64-i64:64-i128:128-f80:128-n8:16:32:64-S128"
target triple = "x86_64-unknown-linux-gnu"

%struct.kvec = type { ptr, i64 }
%struct.iov_iter = type { i8, i8, i8, i8, i64, %union.anon, %union.anon.1 }
%union.anon = type { %struct.iovec }
%struct.iovec = type { ptr, i64 }
%union.anon.1 = type { i64 }

@.str = private unnamed_addr constant [28 x i8] c"include/linux/thread_info.h\00", align 1

; Function Attrs: fn_ret_thunk_extern nounwind null_pointer_is_valid
define dso_local i64 @copy_oldmem_page(ptr noundef %0, i64 noundef %1, i64 noundef %2, i64 noundef %3) local_unnamed_addr #0 align 16 {
  %5 = icmp eq i64 %2, 0
  br i1 %5, label %18, label %6

6:                                                ; preds = %4
  %7 = shl i64 %1, 12
  %8 = tail call ptr @ioremap_cache(i64 noundef %7, i64 noundef 4096) #4
  %9 = icmp eq ptr %8, null
  br i1 %9, label %18, label %10

10:                                               ; preds = %6
  %11 = icmp ugt i64 %2, 2147483647
  br i1 %11, label %12, label %13, !prof !5

12:                                               ; preds = %10
  tail call void asm sideeffect "12: nop\0A\09.pushsection .discard.instr_begin\0A\09.long 12b - .\0A\09.popsection\0A\09", "i,~{dirflag},~{fpsr},~{flags}"(i32 12) #4, !srcloc !6
  tail call void asm sideeffect "1:\09.byte 0x0f, 0x0b\0A.pushsection __bug_table,\22aw\22\0A2:\09.long 1b - .\09# bug_entry::bug_addr\0A\09.long ${0:c} - .\09# bug_entry::file\0A\09.word ${1:c}\09# bug_entry::line\0A\09.word ${2:c}\09# bug_entry::flags\0A\09.org 2b+${3:c}\0A.popsection\0A998:\0A\09.pushsection .discard.reachable\0A\09.long 998b\0A\09.popsection\0A\09", "i,i,i,i,~{dirflag},~{fpsr},~{flags}"(ptr nonnull @.str, i32 249, i32 2307, i64 12) #4, !srcloc !7
  tail call void asm sideeffect "13: nop\0A\09.pushsection .discard.instr_end\0A\09.long 13b - .\0A\09.popsection\0A\09", "i,~{dirflag},~{fpsr},~{flags}"(i32 13) #4, !srcloc !8
  br label %16

13:                                               ; preds = %10
  %14 = getelementptr i8, ptr %8, i64 %3
  %15 = tail call i64 @_copy_to_iter(ptr noundef %14, i64 noundef %2, ptr noundef %0) #4
  br label %16

16:                                               ; preds = %13, %12
  %17 = phi i64 [ %15, %13 ], [ 0, %12 ]
  tail call void @iounmap(ptr noundef nonnull %8) #4
  br label %18

18:                                               ; preds = %16, %6, %4
  %19 = phi i64 [ %17, %16 ], [ 0, %4 ], [ -12, %6 ]
  ret i64 %19
}

; Function Attrs: fn_ret_thunk_extern nounwind null_pointer_is_valid
define dso_local i64 @copy_oldmem_page_encrypted(ptr noundef %0, i64 noundef %1, i64 noundef %2, i64 noundef %3) local_unnamed_addr #0 align 16 {
  %5 = icmp eq i64 %2, 0
  br i1 %5, label %18, label %6

6:                                                ; preds = %4
  %7 = shl i64 %1, 12
  %8 = tail call ptr @ioremap_encrypted(i64 noundef %7, i64 noundef 4096) #4
  %9 = icmp eq ptr %8, null
  br i1 %9, label %18, label %10

10:                                               ; preds = %6
  %11 = icmp ugt i64 %2, 2147483647
  br i1 %11, label %12, label %13, !prof !5

12:                                               ; preds = %10
  tail call void asm sideeffect "12: nop\0A\09.pushsection .discard.instr_begin\0A\09.long 12b - .\0A\09.popsection\0A\09", "i,~{dirflag},~{fpsr},~{flags}"(i32 12) #4, !srcloc !6
  tail call void asm sideeffect "1:\09.byte 0x0f, 0x0b\0A.pushsection __bug_table,\22aw\22\0A2:\09.long 1b - .\09# bug_entry::bug_addr\0A\09.long ${0:c} - .\09# bug_entry::file\0A\09.word ${1:c}\09# bug_entry::line\0A\09.word ${2:c}\09# bug_entry::flags\0A\09.org 2b+${3:c}\0A.popsection\0A998:\0A\09.pushsection .discard.reachable\0A\09.long 998b\0A\09.popsection\0A\09", "i,i,i,i,~{dirflag},~{fpsr},~{flags}"(ptr nonnull @.str, i32 249, i32 2307, i64 12) #4, !srcloc !7
  tail call void asm sideeffect "13: nop\0A\09.pushsection .discard.instr_end\0A\09.long 13b - .\0A\09.popsection\0A\09", "i,~{dirflag},~{fpsr},~{flags}"(i32 13) #4, !srcloc !8
  br label %16

13:                                               ; preds = %10
  %14 = getelementptr i8, ptr %8, i64 %3
  %15 = tail call i64 @_copy_to_iter(ptr noundef %14, i64 noundef %2, ptr noundef %0) #4
  br label %16

16:                                               ; preds = %13, %12
  %17 = phi i64 [ %15, %13 ], [ 0, %12 ]
  tail call void @iounmap(ptr noundef nonnull %8) #4
  br label %18

18:                                               ; preds = %16, %6, %4
  %19 = phi i64 [ %17, %16 ], [ 0, %4 ], [ -12, %6 ]
  ret i64 %19
}

; Function Attrs: fn_ret_thunk_extern nounwind null_pointer_is_valid
define dso_local i64 @elfcorehdr_read(ptr noundef %0, i64 noundef %1, ptr noundef %2) local_unnamed_addr #0 align 16 {
  %4 = alloca %struct.kvec, align 8
  %5 = alloca %struct.iov_iter, align 8
  call void @llvm.lifetime.start.p0(i64 16, ptr nonnull %4) #4
  call void @llvm.memset.p0.i64(ptr noundef nonnull align 8 dereferenceable(16) %4, i8 0, i64 16, i1 false), !annotation !9
  store ptr %0, ptr %4, align 8
  %6 = getelementptr inbounds i8, ptr %4, i64 8
  store i64 %1, ptr %6, align 8
  call void @llvm.lifetime.start.p0(i64 40, ptr nonnull %5) #4
  call void @llvm.memset.p0.i64(ptr noundef nonnull align 8 dereferenceable(40) %5, i8 0, i64 40, i1 false), !annotation !9
  call void @iov_iter_kvec(ptr noundef nonnull %5, i32 noundef 0, ptr noundef nonnull %4, i64 noundef 1, i64 noundef %1) #4
  %7 = call i64 @read_from_oldmem(ptr noundef nonnull %5, i64 noundef %1, ptr noundef %2, i1 noundef zeroext false) #4
  call void @llvm.lifetime.end.p0(i64 40, ptr nonnull %5) #4
  call void @llvm.lifetime.end.p0(i64 16, ptr nonnull %4) #4
  ret i64 %7
}

; Function Attrs: nocallback nofree nosync nounwind willreturn memory(argmem: readwrite)
declare void @llvm.lifetime.start.p0(i64 immarg, ptr nocapture) #1

; Function Attrs: nocallback nofree nounwind willreturn memory(argmem: write)
declare void @llvm.memset.p0.i64(ptr nocapture writeonly, i8, i64, i1 immarg) #2

; Function Attrs: null_pointer_is_valid
declare dso_local void @iov_iter_kvec(ptr noundef, i32 noundef, ptr noundef, i64 noundef, i64 noundef) local_unnamed_addr #3

; Function Attrs: null_pointer_is_valid
declare dso_local i64 @read_from_oldmem(ptr noundef, i64 noundef, ptr noundef, i1 noundef zeroext) local_unnamed_addr #3

; Function Attrs: nocallback nofree nosync nounwind willreturn memory(argmem: readwrite)
declare void @llvm.lifetime.end.p0(i64 immarg, ptr nocapture) #1

; Function Attrs: null_pointer_is_valid
declare dso_local ptr @ioremap_encrypted(i64 noundef, i64 noundef) local_unnamed_addr #3

; Function Attrs: null_pointer_is_valid
declare dso_local ptr @ioremap_cache(i64 noundef, i64 noundef) local_unnamed_addr #3

; Function Attrs: null_pointer_is_valid
declare dso_local void @iounmap(ptr noundef) local_unnamed_addr #3

; Function Attrs: null_pointer_is_valid
declare dso_local i64 @_copy_to_iter(ptr noundef, i64 noundef, ptr noundef) local_unnamed_addr #3


!llvm.module.flags = !{!0, !1, !2, !3, !4}

!0 = !{i32 1, !"wchar_size", i32 2}
!1 = !{i32 8, !"cf-protection-branch", i32 1}
!2 = !{i32 4, !"function_return_thunk_extern", i32 1}
!3 = !{i32 4, !"indirect_branch_cs_prefix", i32 1}
!4 = !{i32 4, !"SkipRaxSetup", i32 1}
!5 = !{!"branch_weights", i32 1, i32 2000}
!6 = !{i64 2149422879, i64 2149422693, i64 2149422745, i64 2149422791, i64 2149422819}
!7 = !{i64 2149422950, i64 2149422979, i64 2149423025, i64 2149423083, i64 2149423137, i64 2149423191, i64 2149423246, i64 2149423277, i64 2149423585, i64 2149423591, i64 2149423638, i64 2149423661, i64 2149423687}
!8 = !{i64 2149424142, i64 2149423958, i64 2149424008, i64 2149424054, i64 2149424082}
!9 = !{!"auto-init"}
